target datalayout = "e-m:e-p270:32:32-p271:32:32-p272:64:64-i64:64-i128:128-f80:128-n8:16:32:64-S128"
target triple = "x86_64-pc-linux-gnu"

%struct.ObjectAddress = type { i32, i32, i32 }
%struct.EventTriggerQueryState = type { ptr, %struct.slist_head, i8, i32, i32, i8, ptr, ptr, ptr }
%struct.slist_head = type { %struct.slist_node }
%struct.slist_node = type { ptr }
%struct.CollectedCommand = type { i32, i8, ptr, %union.anon, ptr }
%union.anon = type { %struct.anon.2 }
%struct.anon.2 = type { %struct.ObjectAddress, ptr, ptr }
%struct.anon.0 = type { i32, i32, ptr }

@currentEventTriggerState = internal global ptr null, align 8

; Function Attrs: nounwind uwtable
define dso_local void @EventTriggerAlterTableRelid(i32 noundef %0) #0 {
  %2 = alloca i32, align 4
  store i32 %0, ptr %2, align 4
  %3 = load ptr, ptr @currentEventTriggerState, align 8
  %4 = icmp ne ptr %3, null
  br i1 %4, label %5, label %10

5:                                                ; preds = %1
  %6 = load ptr, ptr @currentEventTriggerState, align 8
  %7 = getelementptr inbounds nuw %struct.EventTriggerQueryState, ptr %6, i32 0, i32 5
  %8 = load i8, ptr %7, align 4, !range !8, !noundef !9
  %9 = trunc i8 %8 to i1
  br i1 %9, label %10, label %11

10:                                               ; preds = %5, %1
  br label %18

11:                                               ; preds = %5
  %12 = load i32, ptr %2, align 4
  %13 = load ptr, ptr @currentEventTriggerState, align 8
  %14 = getelementptr inbounds nuw %struct.EventTriggerQueryState, ptr %13, i32 0, i32 6
  %15 = load ptr, ptr %14, align 8
  %16 = getelementptr inbounds nuw %struct.CollectedCommand, ptr %15, i32 0, i32 3
  %17 = getelementptr inbounds nuw %struct.anon.0, ptr %16, i32 0, i32 0
  store i32 %12, ptr %17, align 8
  br label %18

18:                                               ; preds = %11, %10
  ret void
}